; Function Attrs: mustprogress uwtable
define noundef i32 @_ZNK6casadi18DaeBuilderInternal9causalityEm(ptr noundef nonnull readonly align 8 captures(none) dereferenceable(1017) %0, i64 noundef %1) local_unnamed_addr #4 align 2 {
  %3 = getelementptr inbounds nuw i8, ptr %0, i64 552
  %4 = getelementptr inbounds nuw i8, ptr %0, i64 560
  %5 = load ptr, ptr %4, align 8, !tbaa !145
  %6 = load ptr, ptr %3, align 8, !tbaa !148
  %7 = ptrtoint ptr %5 to i64
  %8 = ptrtoint ptr %6 to i64
  %9 = sub i64 %7, %8
  %10 = ashr exact i64 %9, 3
  %.not.i.i.i = icmp ult i64 %1, %10
  br i1 %.not.i.i.i, label %_ZNK6casadi18DaeBuilderInternal8variableEm.exit, label %11

11:                                               ; preds = %2
  tail call void (ptr, ...) @_ZSt24__throw_out_of_range_fmtPKcz(ptr noundef nonnull @.str.690, i64 noundef %1, i64 noundef %10) #29
  unreachable

_ZNK6casadi18DaeBuilderInternal8variableEm.exit:  ; preds = %2
  %12 = getelementptr inbounds nuw ptr, ptr %6, i64 %1
  %13 = load ptr, ptr %12, align 8, !tbaa !149
  %14 = getelementptr inbounds nuw i8, ptr %13, i64 116
  %15 = load i32, ptr %14, align 4, !tbaa !98
  ret i32 %15
}